; Function Attrs: nounwind uwtable
define hidden zeroext i1 @X11_HasPrimarySelectionText(ptr noundef readonly captures(none) %0) local_unnamed_addr #0 {
  %2 = alloca i64, align 8
  call void @llvm.lifetime.start.p0(i64 8, ptr nonnull %2) #6
  %3 = load ptr, ptr @text_mime_types, align 16
  %4 = call fastcc ptr @GetSelectionData(ptr noundef readonly %0, i64 noundef 1, ptr noundef %3, ptr noundef nonnull %2)
  %.not.i = icmp eq ptr %4, null
  br i1 %.not.i, label %X11_GetPrimarySelectionText.exit, label %X11_GetPrimarySelectionText.exit.thread

X11_GetPrimarySelectionText.exit.thread:          ; preds = %1
  call void @llvm.lifetime.end.p0(i64 8, ptr nonnull %2) #6
  br label %6

X11_GetPrimarySelectionText.exit:                 ; preds = %1
  %5 = call noalias ptr @SDL_strdup_REAL(ptr noundef nonnull @.str) #6
  call void @llvm.lifetime.end.p0(i64 8, ptr nonnull %2) #6
  %.not = icmp eq ptr %5, null
  br i1 %.not, label %8, label %6

6:                                                ; preds = %X11_GetPrimarySelectionText.exit.thread, %X11_GetPrimarySelectionText.exit
  %.0.i8 = phi ptr [ %4, %X11_GetPrimarySelectionText.exit.thread ], [ %5, %X11_GetPrimarySelectionText.exit ]
  %7 = load i8, ptr %.0.i8, align 1
  %.not5 = icmp ne i8 %7, 0
  call void @SDL_free_REAL(ptr noundef nonnull %.0.i8) #6
  br label %8

8:                                                ; preds = %6, %X11_GetPrimarySelectionText.exit
  %.0 = phi i1 [ %.not5, %6 ], [ false, %X11_GetPrimarySelectionText.exit ]
  ret i1 %.0
}